; Function Attrs: mustprogress nofree norecurse nosync nounwind willreturn memory(argmem: readwrite) uwtable
define hidden void @Curl_pgrsSetUploadSize(ptr noundef captures(none) initializes((2704, 2712)) %0, i64 noundef %1) local_unnamed_addr #3 {
  %3 = icmp sgt i64 %1, -1
  %4 = getelementptr inbounds nuw i8, ptr %0, i64 2704
  %5 = getelementptr inbounds nuw i8, ptr %0, i64 2820
  br i1 %3, label %6, label %9

6:                                                ; preds = %2
  store i64 %1, ptr %4, align 8, !tbaa !82
  %7 = load i32, ptr %5, align 4, !tbaa !75
  %8 = or i32 %7, 32
  br label %12

9:                                                ; preds = %2
  store i64 0, ptr %4, align 8, !tbaa !82
  %10 = load i32, ptr %5, align 4, !tbaa !75
  %11 = and i32 %10, -33
  br label %12

12:                                               ; preds = %9, %6
  %.sink = phi i32 [ %11, %9 ], [ %8, %6 ]
  store i32 %.sink, ptr %5, align 4, !tbaa !75
  ret void
}